target datalayout = "e-m:e-p270:32:32-p271:32:32-p272:64:64-i64:64-i128:128-f80:128-n8:16:32:64-S128"
target triple = "x86_64-pc-linux-gnu"

%struct.Bus_Man_t_ = type { ptr, ptr, ptr, ptr, ptr, ptr, ptr, ptr, ptr, ptr, ptr, ptr }
%struct.Vec_Ptr_t_ = type { i32, i32, ptr }
%struct.Abc_Ntk_t_ = type { i32, i32, ptr, ptr, ptr, ptr, ptr, ptr, ptr, ptr, ptr, ptr, ptr, [11 x i32], i32, i32, i32, i32, ptr, i32, ptr, ptr, i32, i32, i32, double, i32, %struct.Vec_Int_t_, ptr, ptr, ptr, ptr, ptr, float, i32, ptr, ptr, ptr, ptr, ptr, ptr, ptr, ptr, ptr, ptr, ptr, ptr, ptr, ptr, ptr, ptr, ptr, ptr, ptr, ptr, ptr, ptr }
%struct.Vec_Int_t_ = type { i32, i32, ptr }
%struct.Vec_Flt_t_ = type { i32, i32, ptr }
%struct.Abc_Obj_t_ = type { ptr, ptr, i32, i32, %struct.Vec_Int_t_, %struct.Vec_Int_t_, %union.anon, %union.anon.0 }
%union.anon = type { ptr }
%union.anon.0 = type { ptr }

; Function Attrs: inlinehint nounwind uwtable
define internal void @Vec_FltWriteEntry(ptr noundef %0, i32 noundef %1, float noundef %2) #4 {
  %4 = alloca ptr, align 8
  %5 = alloca i32, align 4
  %6 = alloca float, align 4
  store ptr %0, ptr %4, align 8, !tbaa !70
  store i32 %1, ptr %5, align 4, !tbaa !58
  store float %2, ptr %6, align 4, !tbaa !74
  %7 = load float, ptr %6, align 4, !tbaa !74
  %8 = load ptr, ptr %4, align 8, !tbaa !70
  %9 = getelementptr inbounds nuw %struct.Vec_Flt_t_, ptr %8, i32 0, i32 2
  %10 = load ptr, ptr %9, align 8, !tbaa !73
  %11 = load i32, ptr %5, align 4, !tbaa !58
  %12 = sext i32 %11 to i64
  %13 = getelementptr inbounds float, ptr %10, i64 %12
  store float %7, ptr %13, align 4, !tbaa !74
  ret void
}

; Function Attrs: inlinehint nounwind uwtable
define internal float @Vec_FltEntry(ptr noundef %0, i32 noundef %1) #4 {
  %3 = alloca ptr, align 8
  %4 = alloca i32, align 4
  store ptr %0, ptr %3, align 8, !tbaa !70
  store i32 %1, ptr %4, align 4, !tbaa !58
  %5 = load ptr, ptr %3, align 8, !tbaa !70
  %6 = getelementptr inbounds nuw %struct.Vec_Flt_t_, ptr %5, i32 0, i32 2
  %7 = load ptr, ptr %6, align 8, !tbaa !73
  %8 = load i32, ptr %4, align 4, !tbaa !58
  %9 = sext i32 %8 to i64
  %10 = getelementptr inbounds float, ptr %7, i64 %9
  %11 = load float, ptr %10, align 4, !tbaa !74
  ret float %11
}

; Function Attrs: inlinehint nounwind uwtable
define internal i32 @Abc_ObjId(ptr noundef %0) #4 {
  %2 = alloca ptr, align 8
  store ptr %0, ptr %2, align 8, !tbaa !60
  %3 = load ptr, ptr %2, align 8, !tbaa !60
  %4 = getelementptr inbounds nuw %struct.Abc_Obj_t_, ptr %3, i32 0, i32 2
  %5 = load i32, ptr %4, align 8, !tbaa !101
  ret i32 %5
}

; Function Attrs: inlinehint nounwind uwtable
define internal ptr @Bus_SclObjMan(ptr noundef %0) #4 {
  %2 = alloca ptr, align 8
  store ptr %0, ptr %2, align 8, !tbaa !60
  %3 = load ptr, ptr %2, align 8, !tbaa !60
  %4 = getelementptr inbounds nuw %struct.Abc_Obj_t_, ptr %3, i32 0, i32 0
  %5 = load ptr, ptr %4, align 8, !tbaa !86
  %6 = getelementptr inbounds nuw %struct.Abc_Ntk_t_, ptr %5, i32 0, i32 44
  %7 = load ptr, ptr %6, align 8, !tbaa !56
  ret ptr %7
}

; Function Attrs: inlinehint nounwind uwtable
define internal void @Bus_SclObjSetLoad(ptr noundef %0, float noundef %1) #4 {
  %3 = alloca ptr, align 8
  %4 = alloca float, align 4
  store ptr %0, ptr %3, align 8, !tbaa !60
  store float %1, ptr %4, align 4, !tbaa !74
  %5 = load ptr, ptr %3, align 8, !tbaa !60
  %6 = call ptr @Bus_SclObjMan(ptr noundef %5)
  %7 = getelementptr inbounds nuw %struct.Bus_Man_t_, ptr %6, i32 0, i32 9
  %8 = load ptr, ptr %7, align 8, !tbaa !54
  %9 = load ptr, ptr %3, align 8, !tbaa !60
  %10 = call i32 @Abc_ObjId(ptr noundef %9)
  %11 = load float, ptr %4, align 4, !tbaa !74
  call void @Vec_FltWriteEntry(ptr noundef %8, i32 noundef %10, float noundef %11)
  ret void
}

; Function Attrs: inlinehint nounwind uwtable
define internal float @Bus_SclObjCin(ptr noundef %0) #4 {
  %2 = alloca ptr, align 8
  store ptr %0, ptr %2, align 8, !tbaa !60
  %3 = load ptr, ptr %2, align 8, !tbaa !60
  %4 = call ptr @Bus_SclObjMan(ptr noundef %3)
  %5 = getelementptr inbounds nuw %struct.Bus_Man_t_, ptr %4, i32 0, i32 7
  %6 = load ptr, ptr %5, align 8, !tbaa !52
  %7 = load ptr, ptr %2, align 8, !tbaa !60
  %8 = call i32 @Abc_ObjId(ptr noundef %7)
  %9 = call float @Vec_FltEntry(ptr noundef %6, i32 noundef %8)
  ret float %9
}

; Function Attrs: inlinehint nounwind uwtable
define internal ptr @Abc_ObjFanout(ptr noundef %0, i32 noundef %1) #4 {
  %3 = alloca ptr, align 8
  %4 = alloca i32, align 4
  store ptr %0, ptr %3, align 8, !tbaa !60
  store i32 %1, ptr %4, align 4, !tbaa !58
  %5 = load ptr, ptr %3, align 8, !tbaa !60
  %6 = getelementptr inbounds nuw %struct.Abc_Obj_t_, ptr %5, i32 0, i32 0
  %7 = load ptr, ptr %6, align 8, !tbaa !86
  %8 = getelementptr inbounds nuw %struct.Abc_Ntk_t_, ptr %7, i32 0, i32 5
  %9 = load ptr, ptr %8, align 8, !tbaa !59
  %10 = getelementptr inbounds nuw %struct.Vec_Ptr_t_, ptr %9, i32 0, i32 2
  %11 = load ptr, ptr %10, align 8, !tbaa !69
  %12 = load ptr, ptr %3, align 8, !tbaa !60
  %13 = getelementptr inbounds nuw %struct.Abc_Obj_t_, ptr %12, i32 0, i32 5
  %14 = getelementptr inbounds nuw %struct.Vec_Int_t_, ptr %13, i32 0, i32 2
  %15 = load ptr, ptr %14, align 8, !tbaa !87
  %16 = load i32, ptr %4, align 4, !tbaa !58
  %17 = sext i32 %16 to i64
  %18 = getelementptr inbounds i32, ptr %15, i64 %17
  %19 = load i32, ptr %18, align 4, !tbaa !58
  %20 = sext i32 %19 to i64
  %21 = getelementptr inbounds ptr, ptr %11, i64 %20
  %22 = load ptr, ptr %21, align 8, !tbaa !88
  ret ptr %22
}

; Function Attrs: inlinehint nounwind uwtable
define internal i32 @Abc_ObjFanoutNum(ptr noundef %0) #4 {
  %2 = alloca ptr, align 8
  store ptr %0, ptr %2, align 8, !tbaa !60
  %3 = load ptr, ptr %2, align 8, !tbaa !60
  %4 = getelementptr inbounds nuw %struct.Abc_Obj_t_, ptr %3, i32 0, i32 5
  %5 = getelementptr inbounds nuw %struct.Vec_Int_t_, ptr %4, i32 0, i32 1
  %6 = load i32, ptr %5, align 4, !tbaa !84
  ret i32 %6
}

; Function Attrs: nounwind uwtable
define float @Abc_NtkComputeNodeLoad(ptr noundef %0, ptr noundef %1) #0 {
  %3 = alloca ptr, align 8
  %4 = alloca ptr, align 8
  %5 = alloca ptr, align 8
  %6 = alloca float, align 4
  %7 = alloca i32, align 4
  store ptr %0, ptr %3, align 8, !tbaa !12
  store ptr %1, ptr %4, align 8, !tbaa !60
  call void @llvm.lifetime.start.p0(i64 8, ptr %5) #12
  call void @llvm.lifetime.start.p0(i64 4, ptr %6) #12
  call void @llvm.lifetime.start.p0(i64 4, ptr %7) #12
  %8 = load ptr, ptr %3, align 8, !tbaa !12
  %9 = getelementptr inbounds nuw %struct.Bus_Man_t_, ptr %8, i32 0, i32 6
  %10 = load ptr, ptr %9, align 8, !tbaa !50
  %11 = load ptr, ptr %4, align 8, !tbaa !60
  %12 = call i32 @Abc_ObjFanoutNum(ptr noundef %11)
  %13 = call float @Abc_SclFindWireLoad(ptr noundef %10, i32 noundef %12)
  store float %13, ptr %6, align 4, !tbaa !74
  store i32 0, ptr %7, align 4, !tbaa !58
  br label %14

14:                                               ; preds = %30, %2
  %15 = load i32, ptr %7, align 4, !tbaa !58
  %16 = load ptr, ptr %4, align 8, !tbaa !60
  %17 = call i32 @Abc_ObjFanoutNum(ptr noundef %16)
  %18 = icmp slt i32 %15, %17
  br i1 %18, label %19, label %23

19:                                               ; preds = %14
  %20 = load ptr, ptr %4, align 8, !tbaa !60
  %21 = load i32, ptr %7, align 4, !tbaa !58
  %22 = call ptr @Abc_ObjFanout(ptr noundef %20, i32 noundef %21)
  store ptr %22, ptr %5, align 8, !tbaa !60
  br label %23

23:                                               ; preds = %19, %14
  %24 = phi i1 [ false, %14 ], [ true, %19 ]
  br i1 %24, label %25, label %33

25:                                               ; preds = %23
  %26 = load ptr, ptr %5, align 8, !tbaa !60
  %27 = call float @Bus_SclObjCin(ptr noundef %26)
  %28 = load float, ptr %6, align 4, !tbaa !74
  %29 = fadd float %28, %27
  store float %29, ptr %6, align 4, !tbaa !74
  br label %30

30:                                               ; preds = %25
  %31 = load i32, ptr %7, align 4, !tbaa !58
  %32 = add nsw i32 %31, 1
  store i32 %32, ptr %7, align 4, !tbaa !58
  br label %14, !llvm.loop !98

33:                                               ; preds = %23
  %34 = load ptr, ptr %4, align 8, !tbaa !60
  %35 = load float, ptr %6, align 4, !tbaa !74
  call void @Bus_SclObjSetLoad(ptr noundef %34, float noundef %35)
  %36 = load float, ptr %6, align 4, !tbaa !74
  call void @llvm.lifetime.end.p0(i64 4, ptr %7) #12
  call void @llvm.lifetime.end.p0(i64 4, ptr %6) #12
  call void @llvm.lifetime.end.p0(i64 8, ptr %5) #12
  ret float %36
}