; Function Attrs: nounwind uwtable
define float @Abc_NtkComputeNodeLoad(ptr noundef readonly captures(none) %0, ptr noundef readonly captures(none) %1) local_unnamed_addr #0 {
  %3 = getelementptr inbounds nuw i8, ptr %0, i64 48
  %4 = load ptr, ptr %3, align 8, !tbaa !63
  %5 = getelementptr i8, ptr %1, i64 44
  %.val12 = load i32, ptr %5, align 4, !tbaa !80
  %6 = tail call float @Abc_SclFindWireLoad(ptr noundef %4, i32 noundef %.val12) #24
  %.val = load i32, ptr %5, align 4, !tbaa !80
  %7 = icmp sgt i32 %.val, 0
  %.val17.pre = load ptr, ptr %1, align 8, !tbaa !48
  br i1 %7, label %.lr.ph, label %.critedge

.lr.ph:                                           ; preds = %2
  %8 = getelementptr i8, ptr %1, i64 48
  %.val14 = load ptr, ptr %8, align 8, !tbaa !81
  %9 = getelementptr i8, ptr %.val17.pre, i64 32
  %.val13.val = load ptr, ptr %9, align 8, !tbaa !41
  %10 = getelementptr i8, ptr %.val13.val, i64 8
  %.val13.val.val = load ptr, ptr %10, align 8, !tbaa !43
  %wide.trip.count = zext nneg i32 %.val to i64
  br label %11

11:                                               ; preds = %.lr.ph, %11
  %indvars.iv = phi i64 [ 0, %.lr.ph ], [ %indvars.iv.next, %11 ]
  %.01119 = phi float [ %6, %.lr.ph ], [ %24, %11 ]
  %12 = getelementptr inbounds nuw i32, ptr %.val14, i64 %indvars.iv
  %13 = load i32, ptr %12, align 4, !tbaa !54
  %14 = sext i32 %13 to i64
  %15 = getelementptr inbounds ptr, ptr %.val13.val.val, i64 %14
  %16 = load ptr, ptr %15, align 8, !tbaa !44
  %.val15 = load ptr, ptr %16, align 8, !tbaa !48
  %17 = getelementptr i8, ptr %16, i64 16
  %.val16 = load i32, ptr %17, align 8, !tbaa !51
  %18 = getelementptr i8, ptr %.val15, i64 360
  %.val15.val = load ptr, ptr %18, align 8, !tbaa !74
  %19 = getelementptr i8, ptr %.val15.val, i64 56
  %.val15.val.val = load ptr, ptr %19, align 8, !tbaa !69
  %20 = getelementptr i8, ptr %.val15.val.val, i64 8
  %.val15.val.val.val = load ptr, ptr %20, align 8, !tbaa !68
  %21 = sext i32 %.val16 to i64
  %22 = getelementptr inbounds float, ptr %.val15.val.val.val, i64 %21
  %23 = load float, ptr %22, align 4, !tbaa !73
  %24 = fadd float %.01119, %23
  %indvars.iv.next = add nuw nsw i64 %indvars.iv, 1
  %exitcond.not = icmp eq i64 %indvars.iv.next, %wide.trip.count
  br i1 %exitcond.not, label %.critedge, label %11, !llvm.loop !94

.critedge:                                        ; preds = %11, %2
  %.011.lcssa = phi float [ %6, %2 ], [ %24, %11 ]
  %25 = getelementptr i8, ptr %1, i64 16
  %.val18 = load i32, ptr %25, align 8, !tbaa !51
  %26 = getelementptr i8, ptr %.val17.pre, i64 360
  %.val17.val = load ptr, ptr %26, align 8, !tbaa !74
  %27 = getelementptr i8, ptr %.val17.val, i64 72
  %.val17.val.val = load ptr, ptr %27, align 8, !tbaa !71
  %28 = getelementptr i8, ptr %.val17.val.val, i64 8
  %.val17.val.val.val = load ptr, ptr %28, align 8, !tbaa !68
  %29 = sext i32 %.val18 to i64
  %30 = getelementptr inbounds float, ptr %.val17.val.val.val, i64 %29
  store float %.011.lcssa, ptr %30, align 4, !tbaa !73
  ret float %.011.lcssa
}